target datalayout = "e-m:e-p270:32:32-p271:32:32-p272:64:64-i64:64-i128:128-f80:128-n8:16:32:64-S128"
target triple = "x86_64-pc-linux-gnu"

; Function Attrs: mustprogress uwtable
define noundef zeroext i1 @_Z17gmx_fio_ndoe_ivecP8t_fileioPA3_iiPKcS4_i(ptr noundef %0, ptr noundef %1, i32 noundef %2, ptr noundef %3, ptr noundef %4, i32 noundef %5) #2 {
  %7 = alloca ptr, align 8
  %8 = alloca ptr, align 8
  %9 = alloca i32, align 4
  %10 = alloca ptr, align 8
  %11 = alloca ptr, align 8
  %12 = alloca i32, align 4
  %13 = alloca i8, align 1
  %14 = alloca i32, align 4
  store ptr %0, ptr %7, align 8, !tbaa !57
  store ptr %1, ptr %8, align 8, !tbaa !44
  store i32 %2, ptr %9, align 4, !tbaa !56
  store ptr %3, ptr %10, align 8, !tbaa !41
  store ptr %4, ptr %11, align 8, !tbaa !41
  store i32 %5, ptr %12, align 4, !tbaa !56
  call void @llvm.lifetime.start.p0(i64 1, ptr %13) #15
  store i8 1, ptr %13, align 1, !tbaa !58
  call void @llvm.lifetime.start.p0(i64 4, ptr %14) #15
  %15 = load ptr, ptr %7, align 8, !tbaa !57
  call void @_Z12gmx_fio_lockP8t_fileio(ptr noundef %15)
  store i32 0, ptr %14, align 4, !tbaa !56
  br label %16

16:                                               ; preds = %36, %6
  %17 = load i32, ptr %14, align 4, !tbaa !56
  %18 = load i32, ptr %9, align 4, !tbaa !56
  %19 = icmp slt i32 %17, %18
  br i1 %19, label %20, label %39

20:                                               ; preds = %16
  %21 = load i8, ptr %13, align 1, !tbaa !58, !range !37, !noundef !38
  %22 = trunc i8 %21 to i1
  br i1 %22, label %23, label %33

23:                                               ; preds = %20
  %24 = load ptr, ptr %7, align 8, !tbaa !57
  %25 = load ptr, ptr %8, align 8, !tbaa !44
  %26 = load i32, ptr %14, align 4, !tbaa !56
  %27 = sext i32 %26 to i64
  %28 = getelementptr inbounds [3 x i32], ptr %25, i64 %27
  %29 = load ptr, ptr %10, align 8, !tbaa !41
  %30 = load ptr, ptr %11, align 8, !tbaa !41
  %31 = load i32, ptr %12, align 4, !tbaa !56
  %32 = call noundef zeroext i1 @_ZL6do_xdrP8t_fileioPvm15InputOutputTypePKcS4_i(ptr noundef %24, ptr noundef %28, i64 noundef 1, i32 noundef 13, ptr noundef %29, ptr noundef %30, i32 noundef %31)
  br label %33

33:                                               ; preds = %23, %20
  %34 = phi i1 [ false, %20 ], [ %32, %23 ]
  %35 = zext i1 %34 to i8
  store i8 %35, ptr %13, align 1, !tbaa !58
  br label %36

36:                                               ; preds = %33
  %37 = load i32, ptr %14, align 4, !tbaa !56
  %38 = add nsw i32 %37, 1
  store i32 %38, ptr %14, align 4, !tbaa !56
  br label %16, !llvm.loop !135

39:                                               ; preds = %16
  %40 = load ptr, ptr %7, align 8, !tbaa !57
  call void @_Z14gmx_fio_unlockP8t_fileio(ptr noundef %40)
  %41 = load i8, ptr %13, align 1, !tbaa !58, !range !37, !noundef !38
  %42 = trunc i8 %41 to i1
  call void @llvm.lifetime.end.p0(i64 4, ptr %14) #15
  call void @llvm.lifetime.end.p0(i64 1, ptr %13) #15
  ret i1 %42
}